target datalayout = "e-m:e-p270:32:32-p271:32:32-p272:64:64-i64:64-i128:128-f80:128-n8:16:32:64-S128"
target triple = "x86_64-pc-linux-gnu"

%struct.CubeStateInfo = type { i32, i32, ptr, i32, ptr, ptr, ptr }

; Function Attrs: nounwind uwtable
define hidden ptr @initCubemap(ptr noundef %0, i32 noundef %1, i32 noundef %2) #0 {
  %4 = alloca ptr, align 8
  %5 = alloca ptr, align 8
  %6 = alloca i32, align 4
  %7 = alloca i32, align 4
  %8 = alloca i32, align 4
  %9 = alloca %struct.CubeStateInfo, align 8
  %10 = alloca i32, align 4
  %11 = alloca ptr, align 8
  %12 = alloca ptr, align 8
  %13 = alloca i32, align 4
  %14 = alloca i16, align 2
  %15 = alloca i32, align 4
  store ptr %0, ptr %5, align 8
  store i32 %1, ptr %6, align 4
  store i32 %2, ptr %7, align 4
  %16 = load i32, ptr %7, align 4
  %17 = load i32, ptr %7, align 4
  %18 = mul nsw i32 %16, %17
  %19 = load i32, ptr %7, align 4
  %20 = mul nsw i32 %18, %19
  store i32 %20, ptr %10, align 4
  %21 = load i32, ptr %10, align 4
  %22 = sext i32 %21 to i64
  %23 = call noalias ptr @malloc(i64 noundef %22) #8
  store ptr %23, ptr %12, align 8
  %24 = load i32, ptr %6, align 4
  %25 = ashr i32 %24, 1
  %26 = load i32, ptr %6, align 4
  %27 = and i32 %26, 1
  %28 = add nsw i32 %25, %27
  store i32 %28, ptr %13, align 4
  %29 = load ptr, ptr %12, align 8
  %30 = icmp ne ptr %29, null
  br i1 %30, label %31, label %235

31:                                               ; preds = %3
  %32 = load i32, ptr %10, align 4
  %33 = sext i32 %32 to i64
  %34 = call noalias ptr @calloc(i64 noundef %33, i64 noundef 1) #6
  store ptr %34, ptr %11, align 8
  %35 = load ptr, ptr %11, align 8
  %36 = icmp eq ptr %35, null
  br i1 %36, label %37, label %39

37:                                               ; preds = %31
  %38 = load ptr, ptr %12, align 8
  call void @free(ptr noundef %38) #7
  store ptr null, ptr %4, align 8
  br label %236

39:                                               ; preds = %31
  %40 = getelementptr inbounds %struct.CubeStateInfo, ptr %9, i32 0, i32 0
  store i32 0, ptr %40, align 8
  %41 = getelementptr inbounds %struct.CubeStateInfo, ptr %9, i32 0, i32 1
  store i32 0, ptr %41, align 4
  %42 = load ptr, ptr %11, align 8
  %43 = getelementptr inbounds %struct.CubeStateInfo, ptr %9, i32 0, i32 2
  store ptr %42, ptr %43, align 8
  %44 = getelementptr inbounds %struct.CubeStateInfo, ptr %9, i32 0, i32 3
  store i32 0, ptr %44, align 8
  %45 = load ptr, ptr %12, align 8
  %46 = getelementptr inbounds %struct.CubeStateInfo, ptr %9, i32 0, i32 6
  store ptr %45, ptr %46, align 8
  %47 = load i32, ptr %6, align 4
  %48 = sext i32 %47 to i64
  %49 = mul i64 %48, 2
  %50 = call noalias ptr @malloc(i64 noundef %49) #8
  %51 = getelementptr inbounds %struct.CubeStateInfo, ptr %9, i32 0, i32 4
  store ptr %50, ptr %51, align 8
  %52 = getelementptr inbounds %struct.CubeStateInfo, ptr %9, i32 0, i32 4
  %53 = load ptr, ptr %52, align 8
  %54 = icmp eq ptr %53, null
  br i1 %54, label %55, label %58

55:                                               ; preds = %39
  %56 = load ptr, ptr %12, align 8
  call void @free(ptr noundef %56) #7
  %57 = load ptr, ptr %11, align 8
  call void @free(ptr noundef %57) #7
  store ptr null, ptr %4, align 8
  br label %236

58:                                               ; preds = %39
  %59 = load i32, ptr %6, align 4
  %60 = sext i32 %59 to i64
  %61 = mul i64 %60, 1
  %62 = call noalias ptr @malloc(i64 noundef %61) #8
  %63 = getelementptr inbounds %struct.CubeStateInfo, ptr %9, i32 0, i32 5
  store ptr %62, ptr %63, align 8
  %64 = getelementptr inbounds %struct.CubeStateInfo, ptr %9, i32 0, i32 5
  %65 = load ptr, ptr %64, align 8
  %66 = icmp eq ptr %65, null
  br i1 %66, label %67, label %72

67:                                               ; preds = %58
  %68 = getelementptr inbounds %struct.CubeStateInfo, ptr %9, i32 0, i32 4
  %69 = load ptr, ptr %68, align 8
  call void @free(ptr noundef %69) #7
  %70 = load ptr, ptr %12, align 8
  call void @free(ptr noundef %70) #7
  %71 = load ptr, ptr %11, align 8
  call void @free(ptr noundef %71) #7
  store ptr null, ptr %4, align 8
  br label %236

72:                                               ; preds = %58
  store i32 0, ptr %8, align 4
  br label %73

73:                                               ; preds = %215, %72
  %74 = load i32, ptr %8, align 4
  %75 = load i32, ptr %13, align 4
  %76 = icmp slt i32 %74, %75
  br i1 %76, label %77, label %218

77:                                               ; preds = %73
  %78 = load ptr, ptr %5, align 8
  %79 = load i32, ptr %8, align 4
  %80 = sext i32 %79 to i64
  %81 = getelementptr inbounds i32, ptr %78, i64 %80
  %82 = load i32, ptr %81, align 4
  store i32 %82, ptr %15, align 4
  %83 = load i32, ptr %15, align 4
  %84 = and i32 %83, 16252928
  %85 = ashr i32 %84, 9
  %86 = trunc i32 %85 to i16
  store i16 %86, ptr %14, align 2
  %87 = load i32, ptr %15, align 4
  %88 = and i32 %87, 63488
  %89 = ashr i32 %88, 6
  %90 = load i16, ptr %14, align 2
  %91 = zext i16 %90 to i32
  %92 = or i32 %91, %89
  %93 = trunc i32 %92 to i16
  store i16 %93, ptr %14, align 2
  %94 = load i32, ptr %15, align 4
  %95 = and i32 %94, 248
  %96 = ashr i32 %95, 3
  %97 = load i16, ptr %14, align 2
  %98 = zext i16 %97 to i32
  %99 = or i32 %98, %96
  %100 = trunc i32 %99 to i16
  store i16 %100, ptr %14, align 2
  br label %101

101:                                              ; preds = %77
  %102 = getelementptr inbounds %struct.CubeStateInfo, ptr %9, i32 0, i32 2
  %103 = load ptr, ptr %102, align 8
  %104 = load i16, ptr %14, align 2
  %105 = zext i16 %104 to i64
  %106 = getelementptr inbounds i8, ptr %103, i64 %105
  %107 = load i8, ptr %106, align 1
  %108 = icmp ne i8 %107, 0
  br i1 %108, label %140, label %109

109:                                              ; preds = %101
  %110 = getelementptr inbounds %struct.CubeStateInfo, ptr %9, i32 0, i32 2
  %111 = load ptr, ptr %110, align 8
  %112 = load i16, ptr %14, align 2
  %113 = zext i16 %112 to i64
  %114 = getelementptr inbounds i8, ptr %111, i64 %113
  store i8 1, ptr %114, align 1
  %115 = load i32, ptr %8, align 4
  %116 = trunc i32 %115 to i8
  %117 = getelementptr inbounds %struct.CubeStateInfo, ptr %9, i32 0, i32 6
  %118 = load ptr, ptr %117, align 8
  %119 = load i16, ptr %14, align 2
  %120 = zext i16 %119 to i64
  %121 = getelementptr inbounds i8, ptr %118, i64 %120
  store i8 %116, ptr %121, align 1
  %122 = load i16, ptr %14, align 2
  %123 = getelementptr inbounds %struct.CubeStateInfo, ptr %9, i32 0, i32 4
  %124 = load ptr, ptr %123, align 8
  %125 = getelementptr inbounds %struct.CubeStateInfo, ptr %9, i32 0, i32 3
  %126 = load i32, ptr %125, align 8
  %127 = zext i32 %126 to i64
  %128 = getelementptr inbounds i16, ptr %124, i64 %127
  store i16 %122, ptr %128, align 2
  %129 = load i32, ptr %8, align 4
  %130 = trunc i32 %129 to i8
  %131 = getelementptr inbounds %struct.CubeStateInfo, ptr %9, i32 0, i32 5
  %132 = load ptr, ptr %131, align 8
  %133 = getelementptr inbounds %struct.CubeStateInfo, ptr %9, i32 0, i32 3
  %134 = load i32, ptr %133, align 8
  %135 = zext i32 %134 to i64
  %136 = getelementptr inbounds i8, ptr %132, i64 %135
  store i8 %130, ptr %136, align 1
  %137 = getelementptr inbounds %struct.CubeStateInfo, ptr %9, i32 0, i32 3
  %138 = load i32, ptr %137, align 8
  %139 = add i32 %138, 1
  store i32 %139, ptr %137, align 8
  br label %140

140:                                              ; preds = %109, %101
  br label %141

141:                                              ; preds = %140
  %142 = load ptr, ptr %5, align 8
  %143 = load i32, ptr %6, align 4
  %144 = load i32, ptr %8, align 4
  %145 = sub nsw i32 %143, %144
  %146 = sub nsw i32 %145, 1
  %147 = sext i32 %146 to i64
  %148 = getelementptr inbounds i32, ptr %142, i64 %147
  %149 = load i32, ptr %148, align 4
  store i32 %149, ptr %15, align 4
  %150 = load i32, ptr %15, align 4
  %151 = and i32 %150, 16252928
  %152 = ashr i32 %151, 9
  %153 = trunc i32 %152 to i16
  store i16 %153, ptr %14, align 2
  %154 = load i32, ptr %15, align 4
  %155 = and i32 %154, 63488
  %156 = ashr i32 %155, 6
  %157 = load i16, ptr %14, align 2
  %158 = zext i16 %157 to i32
  %159 = or i32 %158, %156
  %160 = trunc i32 %159 to i16
  store i16 %160, ptr %14, align 2
  %161 = load i32, ptr %15, align 4
  %162 = and i32 %161, 248
  %163 = ashr i32 %162, 3
  %164 = load i16, ptr %14, align 2
  %165 = zext i16 %164 to i32
  %166 = or i32 %165, %163
  %167 = trunc i32 %166 to i16
  store i16 %167, ptr %14, align 2
  br label %168

168:                                              ; preds = %141
  %169 = getelementptr inbounds %struct.CubeStateInfo, ptr %9, i32 0, i32 2
  %170 = load ptr, ptr %169, align 8
  %171 = load i16, ptr %14, align 2
  %172 = zext i16 %171 to i64
  %173 = getelementptr inbounds i8, ptr %170, i64 %172
  %174 = load i8, ptr %173, align 1
  %175 = icmp ne i8 %174, 0
  br i1 %175, label %213, label %176

176:                                              ; preds = %168
  %177 = getelementptr inbounds %struct.CubeStateInfo, ptr %9, i32 0, i32 2
  %178 = load ptr, ptr %177, align 8
  %179 = load i16, ptr %14, align 2
  %180 = zext i16 %179 to i64
  %181 = getelementptr inbounds i8, ptr %178, i64 %180
  store i8 1, ptr %181, align 1
  %182 = load i32, ptr %6, align 4
  %183 = load i32, ptr %8, align 4
  %184 = sub nsw i32 %182, %183
  %185 = sub nsw i32 %184, 1
  %186 = trunc i32 %185 to i8
  %187 = getelementptr inbounds %struct.CubeStateInfo, ptr %9, i32 0, i32 6
  %188 = load ptr, ptr %187, align 8
  %189 = load i16, ptr %14, align 2
  %190 = zext i16 %189 to i64
  %191 = getelementptr inbounds i8, ptr %188, i64 %190
  store i8 %186, ptr %191, align 1
  %192 = load i16, ptr %14, align 2
  %193 = getelementptr inbounds %struct.CubeStateInfo, ptr %9, i32 0, i32 4
  %194 = load ptr, ptr %193, align 8
  %195 = getelementptr inbounds %struct.CubeStateInfo, ptr %9, i32 0, i32 3
  %196 = load i32, ptr %195, align 8
  %197 = zext i32 %196 to i64
  %198 = getelementptr inbounds i16, ptr %194, i64 %197
  store i16 %192, ptr %198, align 2
  %199 = load i32, ptr %6, align 4
  %200 = load i32, ptr %8, align 4
  %201 = sub nsw i32 %199, %200
  %202 = sub nsw i32 %201, 1
  %203 = trunc i32 %202 to i8
  %204 = getelementptr inbounds %struct.CubeStateInfo, ptr %9, i32 0, i32 5
  %205 = load ptr, ptr %204, align 8
  %206 = getelementptr inbounds %struct.CubeStateInfo, ptr %9, i32 0, i32 3
  %207 = load i32, ptr %206, align 8
  %208 = zext i32 %207 to i64
  %209 = getelementptr inbounds i8, ptr %205, i64 %208
  store i8 %203, ptr %209, align 1
  %210 = getelementptr inbounds %struct.CubeStateInfo, ptr %9, i32 0, i32 3
  %211 = load i32, ptr %210, align 8
  %212 = add i32 %211, 1
  store i32 %212, ptr %210, align 8
  br label %213

213:                                              ; preds = %176, %168
  br label %214

214:                                              ; preds = %213
  br label %215

215:                                              ; preds = %214
  %216 = load i32, ptr %8, align 4
  %217 = add nsw i32 %216, 1
  store i32 %217, ptr %8, align 4
  br label %73, !llvm.loop !11

218:                                              ; preds = %73
  %219 = call i32 @recurseLevel(ptr noundef %9)
  %220 = icmp ne i32 %219, 0
  br i1 %220, label %228, label %221

221:                                              ; preds = %218
  %222 = load ptr, ptr %12, align 8
  call void @free(ptr noundef %222) #7
  %223 = load ptr, ptr %11, align 8
  call void @free(ptr noundef %223) #7
  %224 = getelementptr inbounds %struct.CubeStateInfo, ptr %9, i32 0, i32 4
  %225 = load ptr, ptr %224, align 8
  call void @free(ptr noundef %225) #7
  %226 = getelementptr inbounds %struct.CubeStateInfo, ptr %9, i32 0, i32 5
  %227 = load ptr, ptr %226, align 8
  call void @free(ptr noundef %227) #7
  store ptr null, ptr %4, align 8
  br label %236

228:                                              ; preds = %218
  %229 = load ptr, ptr %11, align 8
  call void @free(ptr noundef %229) #7
  %230 = getelementptr inbounds %struct.CubeStateInfo, ptr %9, i32 0, i32 4
  %231 = load ptr, ptr %230, align 8
  call void @free(ptr noundef %231) #7
  %232 = getelementptr inbounds %struct.CubeStateInfo, ptr %9, i32 0, i32 5
  %233 = load ptr, ptr %232, align 8
  call void @free(ptr noundef %233) #7
  %234 = load ptr, ptr %12, align 8
  store ptr %234, ptr %4, align 8
  br label %236

235:                                              ; preds = %3
  store ptr null, ptr %4, align 8
  br label %236

236:                                              ; preds = %235, %228, %221, %67, %55, %37
  %237 = load ptr, ptr %4, align 8
  ret ptr %237
}