; Function Attrs: nounwind uwtable
define hidden noundef ptr @initCubemap(ptr nocapture noundef readonly %0, i32 noundef %1, i32 noundef %2) local_unnamed_addr #4 {
  %4 = alloca %struct.CubeStateInfo, align 8
  %5 = mul nsw i32 %2, %2
  %6 = mul nsw i32 %5, %2
  %7 = sext i32 %6 to i64
  %8 = tail call noalias ptr @malloc(i64 noundef %7) #12
  %9 = ashr i32 %1, 1
  %10 = and i32 %1, 1
  %11 = add nsw i32 %9, %10
  %.not = icmp eq ptr %8, null
  br i1 %.not, label %91, label %12

12:                                               ; preds = %3
  %13 = tail call noalias ptr @calloc(i64 noundef %7, i64 noundef 1) #10
  %14 = icmp eq ptr %13, null
  br i1 %14, label %15, label %16

15:                                               ; preds = %12
  tail call void @free(ptr noundef nonnull %8) #11
  br label %91

16:                                               ; preds = %12
  store i32 0, ptr %4, align 8
  %17 = getelementptr inbounds i8, ptr %4, i64 4
  store i32 0, ptr %17, align 4
  %18 = getelementptr inbounds i8, ptr %4, i64 8
  store ptr %13, ptr %18, align 8
  %19 = getelementptr inbounds i8, ptr %4, i64 16
  %20 = getelementptr inbounds i8, ptr %4, i64 40
  store ptr %8, ptr %20, align 8
  %21 = sext i32 %1 to i64
  %22 = shl nsw i64 %21, 1
  %23 = tail call noalias ptr @malloc(i64 noundef %22) #12
  %24 = getelementptr inbounds i8, ptr %4, i64 24
  store ptr %23, ptr %24, align 8
  %25 = icmp eq ptr %23, null
  br i1 %25, label %26, label %27

26:                                               ; preds = %16
  tail call void @free(ptr noundef nonnull %8) #11
  tail call void @free(ptr noundef nonnull %13) #11
  br label %91

27:                                               ; preds = %16
  %28 = tail call noalias ptr @malloc(i64 noundef %21) #12
  %29 = getelementptr inbounds i8, ptr %4, i64 32
  store ptr %28, ptr %29, align 8
  %30 = icmp eq ptr %28, null
  br i1 %30, label %32, label %.preheader

.preheader:                                       ; preds = %27
  %31 = icmp sgt i32 %11, 0
  br i1 %31, label %.lr.ph.preheader, label %._crit_edge

.lr.ph.preheader:                                 ; preds = %.preheader
  %wide.trip.count = zext nneg i32 %11 to i64
  br label %.lr.ph

32:                                               ; preds = %27
  tail call void @free(ptr noundef nonnull %23) #11
  tail call void @free(ptr noundef nonnull %8) #11
  tail call void @free(ptr noundef nonnull %13) #11
  br label %91

.lr.ph:                                           ; preds = %.lr.ph.preheader, %82
  %indvars.iv = phi i64 [ 0, %.lr.ph.preheader ], [ %indvars.iv.next, %82 ]
  %33 = phi i32 [ 0, %.lr.ph.preheader ], [ %83, %82 ]
  %34 = getelementptr inbounds i32, ptr %0, i64 %indvars.iv
  %35 = load i32, ptr %34, align 4
  %36 = lshr i32 %35, 9
  %37 = and i32 %36, 31744
  %38 = lshr i32 %35, 6
  %39 = and i32 %38, 992
  %40 = or disjoint i32 %37, %39
  %41 = lshr i32 %35, 3
  %42 = and i32 %41, 31
  %43 = or disjoint i32 %40, %42
  %44 = zext nneg i32 %43 to i64
  %45 = getelementptr inbounds i8, ptr %13, i64 %44
  %46 = load i8, ptr %45, align 1
  %.not58 = icmp eq i8 %46, 0
  br i1 %.not58, label %47, label %55

47:                                               ; preds = %.lr.ph
  %48 = trunc nuw nsw i32 %43 to i16
  store i8 1, ptr %45, align 1
  %49 = trunc i64 %indvars.iv to i8
  %50 = getelementptr inbounds i8, ptr %8, i64 %44
  store i8 %49, ptr %50, align 1
  %51 = zext i32 %33 to i64
  %52 = getelementptr inbounds i16, ptr %23, i64 %51
  store i16 %48, ptr %52, align 2
  %53 = getelementptr inbounds i8, ptr %28, i64 %51
  store i8 %49, ptr %53, align 1
  %54 = add i32 %33, 1
  br label %55

55:                                               ; preds = %.lr.ph, %47
  %56 = phi i32 [ %33, %.lr.ph ], [ %54, %47 ]
  %57 = trunc i64 %indvars.iv to i32
  %58 = xor i32 %57, -1
  %59 = add i32 %58, %1
  %60 = sext i32 %59 to i64
  %61 = getelementptr inbounds i32, ptr %0, i64 %60
  %62 = load i32, ptr %61, align 4
  %63 = lshr i32 %62, 9
  %64 = and i32 %63, 31744
  %65 = lshr i32 %62, 6
  %66 = and i32 %65, 992
  %67 = or disjoint i32 %64, %66
  %68 = lshr i32 %62, 3
  %69 = and i32 %68, 31
  %70 = or disjoint i32 %67, %69
  %71 = zext nneg i32 %70 to i64
  %72 = getelementptr inbounds i8, ptr %13, i64 %71
  %73 = load i8, ptr %72, align 1
  %.not59 = icmp eq i8 %73, 0
  br i1 %.not59, label %74, label %82

74:                                               ; preds = %55
  %75 = trunc nuw nsw i32 %70 to i16
  store i8 1, ptr %72, align 1
  %76 = trunc i32 %59 to i8
  %77 = getelementptr inbounds i8, ptr %8, i64 %71
  store i8 %76, ptr %77, align 1
  %78 = zext i32 %56 to i64
  %79 = getelementptr inbounds i16, ptr %23, i64 %78
  store i16 %75, ptr %79, align 2
  %80 = getelementptr inbounds i8, ptr %28, i64 %78
  store i8 %76, ptr %80, align 1
  %81 = add i32 %56, 1
  br label %82

82:                                               ; preds = %74, %55
  %83 = phi i32 [ %81, %74 ], [ %56, %55 ]
  %indvars.iv.next = add nuw nsw i64 %indvars.iv, 1
  %exitcond.not = icmp eq i64 %indvars.iv.next, %wide.trip.count
  br i1 %exitcond.not, label %._crit_edge, label %.lr.ph, !llvm.loop !10

._crit_edge:                                      ; preds = %82, %.preheader
  %.lcssa = phi i32 [ 0, %.preheader ], [ %83, %82 ]
  store i32 %.lcssa, ptr %19, align 8
  %84 = call fastcc i32 @recurseLevel(ptr noundef nonnull %4)
  %.not57 = icmp eq i32 %84, 0
  br i1 %.not57, label %85, label %88

85:                                               ; preds = %._crit_edge
  tail call void @free(ptr noundef %8) #11
  tail call void @free(ptr noundef nonnull %13) #11
  %86 = load ptr, ptr %24, align 8
  tail call void @free(ptr noundef %86) #11
  %87 = load ptr, ptr %29, align 8
  tail call void @free(ptr noundef %87) #11
  br label %91

88:                                               ; preds = %._crit_edge
  tail call void @free(ptr noundef nonnull %13) #11
  %89 = load ptr, ptr %24, align 8
  tail call void @free(ptr noundef %89) #11
  %90 = load ptr, ptr %29, align 8
  tail call void @free(ptr noundef %90) #11
  br label %91

91:                                               ; preds = %3, %88, %85, %32, %26, %15
  %.0 = phi ptr [ null, %15 ], [ null, %26 ], [ null, %32 ], [ %8, %88 ], [ null, %85 ], [ null, %3 ]
  ret ptr %.0
}